target datalayout = "e-m:e-p270:32:32-p271:32:32-p272:64:64-i64:64-i128:128-f80:128-n8:16:32:64-S128"
target triple = "x86_64-pc-linux-gnu"

%struct.mime_header_entry = type { ptr, ptr }

; Function Attrs: nounwind uwtable
define internal void @php_free_hdr_entry(ptr noundef %0) #0 {
  %2 = alloca ptr, align 8
  store ptr %0, ptr %2, align 8, !tbaa !42
  %3 = load ptr, ptr %2, align 8, !tbaa !42
  %4 = getelementptr inbounds nuw %struct.mime_header_entry, ptr %3, i32 0, i32 0
  %5 = load ptr, ptr %4, align 8, !tbaa !110
  %6 = icmp ne ptr %5, null
  br i1 %6, label %7, label %11

7:                                                ; preds = %1
  %8 = load ptr, ptr %2, align 8, !tbaa !42
  %9 = getelementptr inbounds nuw %struct.mime_header_entry, ptr %8, i32 0, i32 0
  %10 = load ptr, ptr %9, align 8, !tbaa !110
  call void @_efree(ptr noundef %10)
  br label %11

11:                                               ; preds = %7, %1
  %12 = load ptr, ptr %2, align 8, !tbaa !42
  %13 = getelementptr inbounds nuw %struct.mime_header_entry, ptr %12, i32 0, i32 1
  %14 = load ptr, ptr %13, align 8, !tbaa !112
  %15 = icmp ne ptr %14, null
  br i1 %15, label %16, label %20

16:                                               ; preds = %11
  %17 = load ptr, ptr %2, align 8, !tbaa !42
  %18 = getelementptr inbounds nuw %struct.mime_header_entry, ptr %17, i32 0, i32 1
  %19 = load ptr, ptr %18, align 8, !tbaa !112
  call void @_efree(ptr noundef %19)
  br label %20

20:                                               ; preds = %16, %11
  ret void
}