; Function Attrs: nounwind uwtable
define internal void @php_free_hdr_entry(ptr noundef readonly captures(none) %0) #0 {
  %2 = load ptr, ptr %0, align 8, !tbaa !74
  %.not = icmp eq ptr %2, null
  br i1 %.not, label %4, label %3

3:                                                ; preds = %1
  tail call void @_efree(ptr noundef nonnull %2) #21
  br label %4

4:                                                ; preds = %3, %1
  %5 = getelementptr inbounds nuw i8, ptr %0, i64 8
  %6 = load ptr, ptr %5, align 8, !tbaa !76
  %.not5 = icmp eq ptr %6, null
  br i1 %.not5, label %8, label %7

7:                                                ; preds = %4
  tail call void @_efree(ptr noundef nonnull %6) #21
  br label %8

8:                                                ; preds = %7, %4
  ret void
}